target datalayout = "e-m:e-p270:32:32-p271:32:32-p272:64:64-i64:64-i128:128-f80:128-n8:16:32:64-S128"
target triple = "x86_64-pc-linux-gnu"

%struct.variable = type { ptr, ptr, i32, ptr }
%struct.cursor = type { ptr, ptr, ptr, ptr, i8, ptr, ptr, ptr, ptr, ptr }
%struct.arguments = type { ptr, ptr, ptr }

@allvariables = internal global ptr null, align 8
@cur = external global ptr, align 8

; Function Attrs: nounwind uwtable
define dso_local void @remove_variables(i32 noundef %0) #0 {
  %2 = alloca i32, align 4
  %3 = alloca ptr, align 8
  %4 = alloca ptr, align 8
  %5 = alloca ptr, align 8
  %6 = alloca ptr, align 8
  %7 = alloca ptr, align 8
  %8 = alloca ptr, align 8
  %9 = alloca ptr, align 8
  store i32 %0, ptr %2, align 4
  call void @llvm.lifetime.start.p0(i64 8, ptr %3) #7
  call void @llvm.lifetime.start.p0(i64 8, ptr %4) #7
  call void @llvm.lifetime.start.p0(i64 8, ptr %5) #7
  %10 = load ptr, ptr @allvariables, align 8
  store ptr %10, ptr %3, align 8
  store ptr null, ptr %4, align 8
  br label %11

11:                                               ; preds = %121, %1
  %12 = load ptr, ptr %3, align 8
  %13 = icmp ne ptr %12, null
  br i1 %13, label %14, label %123

14:                                               ; preds = %11
  %15 = load ptr, ptr %3, align 8
  %16 = getelementptr inbounds nuw %struct.variable, ptr %15, i32 0, i32 3
  %17 = load ptr, ptr %16, align 8
  store ptr %17, ptr %5, align 8
  %18 = load ptr, ptr %3, align 8
  %19 = getelementptr inbounds nuw %struct.variable, ptr %18, i32 0, i32 2
  %20 = load i32, ptr %19, align 8
  %21 = load i32, ptr %2, align 4
  %22 = icmp sge i32 %20, %21
  br i1 %22, label %23, label %118

23:                                               ; preds = %14
  call void @llvm.lifetime.start.p0(i64 8, ptr %6) #7
  %24 = load ptr, ptr @cur, align 8
  store ptr %24, ptr %6, align 8
  br label %25

25:                                               ; preds = %97, %23
  %26 = load ptr, ptr %6, align 8
  %27 = icmp ne ptr %26, null
  br i1 %27, label %28, label %101

28:                                               ; preds = %25
  call void @llvm.lifetime.start.p0(i64 8, ptr %7) #7
  call void @llvm.lifetime.start.p0(i64 8, ptr %8) #7
  call void @llvm.lifetime.start.p0(i64 8, ptr %9) #7
  %29 = load ptr, ptr %6, align 8
  %30 = getelementptr inbounds nuw %struct.cursor, ptr %29, i32 0, i32 5
  %31 = load ptr, ptr %30, align 8
  store ptr %31, ptr %7, align 8
  store ptr null, ptr %8, align 8
  br label %32

32:                                               ; preds = %60, %28
  %33 = load ptr, ptr %7, align 8
  %34 = icmp ne ptr %33, null
  br i1 %34, label %35, label %62

35:                                               ; preds = %32
  %36 = load ptr, ptr %7, align 8
  %37 = getelementptr inbounds nuw %struct.arguments, ptr %36, i32 0, i32 2
  %38 = load ptr, ptr %37, align 8
  store ptr %38, ptr %9, align 8
  %39 = load ptr, ptr %3, align 8
  %40 = load ptr, ptr %7, align 8
  %41 = getelementptr inbounds nuw %struct.arguments, ptr %40, i32 0, i32 0
  %42 = load ptr, ptr %41, align 8
  %43 = icmp eq ptr %39, %42
  br i1 %43, label %44, label %57

44:                                               ; preds = %35
  %45 = load ptr, ptr %8, align 8
  %46 = icmp ne ptr %45, null
  br i1 %46, label %47, label %51

47:                                               ; preds = %44
  %48 = load ptr, ptr %9, align 8
  %49 = load ptr, ptr %8, align 8
  %50 = getelementptr inbounds nuw %struct.arguments, ptr %49, i32 0, i32 2
  store ptr %48, ptr %50, align 8
  br label %55

51:                                               ; preds = %44
  %52 = load ptr, ptr %9, align 8
  %53 = load ptr, ptr %6, align 8
  %54 = getelementptr inbounds nuw %struct.cursor, ptr %53, i32 0, i32 5
  store ptr %52, ptr %54, align 8
  br label %55

55:                                               ; preds = %51, %47
  %56 = load ptr, ptr %7, align 8
  call void @free(ptr noundef %56) #7
  br label %59

57:                                               ; preds = %35
  %58 = load ptr, ptr %7, align 8
  store ptr %58, ptr %8, align 8
  br label %59

59:                                               ; preds = %57, %55
  br label %60

60:                                               ; preds = %59
  %61 = load ptr, ptr %9, align 8
  store ptr %61, ptr %7, align 8
  br label %32, !llvm.loop !8

62:                                               ; preds = %32
  %63 = load ptr, ptr %6, align 8
  %64 = getelementptr inbounds nuw %struct.cursor, ptr %63, i32 0, i32 7
  %65 = load ptr, ptr %64, align 8
  store ptr %65, ptr %7, align 8
  store ptr null, ptr %8, align 8
  br label %66

66:                                               ; preds = %94, %62
  %67 = load ptr, ptr %7, align 8
  %68 = icmp ne ptr %67, null
  br i1 %68, label %69, label %96

69:                                               ; preds = %66
  %70 = load ptr, ptr %7, align 8
  %71 = getelementptr inbounds nuw %struct.arguments, ptr %70, i32 0, i32 2
  %72 = load ptr, ptr %71, align 8
  store ptr %72, ptr %9, align 8
  %73 = load ptr, ptr %3, align 8
  %74 = load ptr, ptr %7, align 8
  %75 = getelementptr inbounds nuw %struct.arguments, ptr %74, i32 0, i32 0
  %76 = load ptr, ptr %75, align 8
  %77 = icmp eq ptr %73, %76
  br i1 %77, label %78, label %91

78:                                               ; preds = %69
  %79 = load ptr, ptr %8, align 8
  %80 = icmp ne ptr %79, null
  br i1 %80, label %81, label %85

81:                                               ; preds = %78
  %82 = load ptr, ptr %9, align 8
  %83 = load ptr, ptr %8, align 8
  %84 = getelementptr inbounds nuw %struct.arguments, ptr %83, i32 0, i32 2
  store ptr %82, ptr %84, align 8
  br label %89

85:                                               ; preds = %78
  %86 = load ptr, ptr %9, align 8
  %87 = load ptr, ptr %6, align 8
  %88 = getelementptr inbounds nuw %struct.cursor, ptr %87, i32 0, i32 7
  store ptr %86, ptr %88, align 8
  br label %89

89:                                               ; preds = %85, %81
  %90 = load ptr, ptr %7, align 8
  call void @free(ptr noundef %90) #7
  br label %93

91:                                               ; preds = %69
  %92 = load ptr, ptr %7, align 8
  store ptr %92, ptr %8, align 8
  br label %93

93:                                               ; preds = %91, %89
  br label %94

94:                                               ; preds = %93
  %95 = load ptr, ptr %9, align 8
  store ptr %95, ptr %7, align 8
  br label %66, !llvm.loop !9

96:                                               ; preds = %66
  call void @llvm.lifetime.end.p0(i64 8, ptr %9) #7
  call void @llvm.lifetime.end.p0(i64 8, ptr %8) #7
  call void @llvm.lifetime.end.p0(i64 8, ptr %7) #7
  br label %97

97:                                               ; preds = %96
  %98 = load ptr, ptr %6, align 8
  %99 = getelementptr inbounds nuw %struct.cursor, ptr %98, i32 0, i32 9
  %100 = load ptr, ptr %99, align 8
  store ptr %100, ptr %6, align 8
  br label %25, !llvm.loop !10

101:                                              ; preds = %25
  %102 = load ptr, ptr %4, align 8
  %103 = icmp ne ptr %102, null
  br i1 %103, label %104, label %108

104:                                              ; preds = %101
  %105 = load ptr, ptr %5, align 8
  %106 = load ptr, ptr %4, align 8
  %107 = getelementptr inbounds nuw %struct.variable, ptr %106, i32 0, i32 3
  store ptr %105, ptr %107, align 8
  br label %110

108:                                              ; preds = %101
  %109 = load ptr, ptr %5, align 8
  store ptr %109, ptr @allvariables, align 8
  br label %110

110:                                              ; preds = %108, %104
  %111 = load ptr, ptr %3, align 8
  %112 = getelementptr inbounds nuw %struct.variable, ptr %111, i32 0, i32 1
  %113 = load ptr, ptr %112, align 8
  call void @ECPGfree_type(ptr noundef %113)
  %114 = load ptr, ptr %3, align 8
  %115 = getelementptr inbounds nuw %struct.variable, ptr %114, i32 0, i32 0
  %116 = load ptr, ptr %115, align 8
  call void @free(ptr noundef %116) #7
  %117 = load ptr, ptr %3, align 8
  call void @free(ptr noundef %117) #7
  call void @llvm.lifetime.end.p0(i64 8, ptr %6) #7
  br label %120

118:                                              ; preds = %14
  %119 = load ptr, ptr %3, align 8
  store ptr %119, ptr %4, align 8
  br label %120

120:                                              ; preds = %118, %110
  br label %121

121:                                              ; preds = %120
  %122 = load ptr, ptr %5, align 8
  store ptr %122, ptr %3, align 8
  br label %11, !llvm.loop !11

123:                                              ; preds = %11
  call void @llvm.lifetime.end.p0(i64 8, ptr %5) #7
  call void @llvm.lifetime.end.p0(i64 8, ptr %4) #7
  call void @llvm.lifetime.end.p0(i64 8, ptr %3) #7
  ret void
}