; Function Attrs: nounwind uwtable
define dso_local void @remove_variables(i32 noundef %0) local_unnamed_addr #0 {
  %2 = load ptr, ptr @allvariables, align 8
  %.not67 = icmp eq ptr %2, null
  br i1 %.not67, label %._crit_edge72, label %.lr.ph71

.lr.ph71:                                         ; preds = %1, %39
  %.04369 = phi ptr [ %4, %39 ], [ %2, %1 ]
  %.04468 = phi ptr [ %.145, %39 ], [ null, %1 ]
  %3 = getelementptr inbounds nuw i8, ptr %.04369, i64 24
  %4 = load ptr, ptr %3, align 8
  %5 = getelementptr inbounds nuw i8, ptr %.04369, i64 16
  %6 = load i32, ptr %5, align 8
  %.not46 = icmp slt i32 %6, %0
  br i1 %.not46, label %39, label %.preheader

.preheader:                                       ; preds = %.lr.ph71
  %.04262 = load ptr, ptr @cur, align 8
  %.not4763 = icmp eq ptr %.04262, null
  br i1 %.not4763, label %._crit_edge66, label %.lr.ph65

.lr.ph65:                                         ; preds = %.preheader, %._crit_edge61
  %.04264 = phi ptr [ %.042, %._crit_edge61 ], [ %.04262, %.preheader ]
  %7 = getelementptr inbounds nuw i8, ptr %.04264, i64 40
  %8 = load ptr, ptr %7, align 8
  %.not4953 = icmp eq ptr %8, null
  br i1 %.not4953, label %._crit_edge, label %.lr.ph

.lr.ph:                                           ; preds = %.lr.ph65, %18
  %.055 = phi ptr [ %.1, %18 ], [ null, %.lr.ph65 ]
  %.04054 = phi ptr [ %10, %18 ], [ %8, %.lr.ph65 ]
  %9 = getelementptr inbounds nuw i8, ptr %.04054, i64 16
  %10 = load ptr, ptr %9, align 8
  %11 = load ptr, ptr %.04054, align 8
  %12 = icmp eq ptr %.04369, %11
  br i1 %12, label %13, label %18

13:                                               ; preds = %.lr.ph
  %.not52 = icmp eq ptr %.055, null
  br i1 %.not52, label %16, label %14

14:                                               ; preds = %13
  %15 = getelementptr inbounds nuw i8, ptr %.055, i64 16
  store ptr %10, ptr %15, align 8
  br label %17

16:                                               ; preds = %13
  store ptr %10, ptr %7, align 8
  br label %17

17:                                               ; preds = %16, %14
  tail call void @free(ptr noundef nonnull %.04054) #6
  br label %18

18:                                               ; preds = %.lr.ph, %17
  %.1 = phi ptr [ %.055, %17 ], [ %.04054, %.lr.ph ]
  %.not49 = icmp eq ptr %10, null
  br i1 %.not49, label %._crit_edge, label %.lr.ph, !llvm.loop !8

._crit_edge:                                      ; preds = %18, %.lr.ph65
  %19 = getelementptr inbounds nuw i8, ptr %.04264, i64 56
  %20 = load ptr, ptr %19, align 8
  %.not5056 = icmp eq ptr %20, null
  br i1 %.not5056, label %._crit_edge61, label %.lr.ph60

.lr.ph60:                                         ; preds = %._crit_edge, %30
  %.258 = phi ptr [ %.3, %30 ], [ null, %._crit_edge ]
  %.14157 = phi ptr [ %22, %30 ], [ %20, %._crit_edge ]
  %21 = getelementptr inbounds nuw i8, ptr %.14157, i64 16
  %22 = load ptr, ptr %21, align 8
  %23 = load ptr, ptr %.14157, align 8
  %24 = icmp eq ptr %.04369, %23
  br i1 %24, label %25, label %30

25:                                               ; preds = %.lr.ph60
  %.not51 = icmp eq ptr %.258, null
  br i1 %.not51, label %28, label %26

26:                                               ; preds = %25
  %27 = getelementptr inbounds nuw i8, ptr %.258, i64 16
  store ptr %22, ptr %27, align 8
  br label %29

28:                                               ; preds = %25
  store ptr %22, ptr %19, align 8
  br label %29

29:                                               ; preds = %28, %26
  tail call void @free(ptr noundef nonnull %.14157) #6
  br label %30

30:                                               ; preds = %.lr.ph60, %29
  %.3 = phi ptr [ %.258, %29 ], [ %.14157, %.lr.ph60 ]
  %.not50 = icmp eq ptr %22, null
  br i1 %.not50, label %._crit_edge61, label %.lr.ph60, !llvm.loop !9

._crit_edge61:                                    ; preds = %30, %._crit_edge
  %31 = getelementptr inbounds nuw i8, ptr %.04264, i64 72
  %.042 = load ptr, ptr %31, align 8
  %.not47 = icmp eq ptr %.042, null
  br i1 %.not47, label %._crit_edge66, label %.lr.ph65, !llvm.loop !10

._crit_edge66:                                    ; preds = %._crit_edge61, %.preheader
  %.not48 = icmp eq ptr %.04468, null
  br i1 %.not48, label %34, label %32

32:                                               ; preds = %._crit_edge66
  %33 = getelementptr inbounds nuw i8, ptr %.04468, i64 24
  store ptr %4, ptr %33, align 8
  br label %35

34:                                               ; preds = %._crit_edge66
  store ptr %4, ptr @allvariables, align 8
  br label %35

35:                                               ; preds = %34, %32
  %36 = getelementptr inbounds nuw i8, ptr %.04369, i64 8
  %37 = load ptr, ptr %36, align 8
  tail call void @ECPGfree_type(ptr noundef %37) #6
  %38 = load ptr, ptr %.04369, align 8
  tail call void @free(ptr noundef %38) #6
  tail call void @free(ptr noundef %.04369) #6
  br label %39

39:                                               ; preds = %.lr.ph71, %35
  %.145 = phi ptr [ %.04468, %35 ], [ %.04369, %.lr.ph71 ]
  %.not = icmp eq ptr %4, null
  br i1 %.not, label %._crit_edge72, label %.lr.ph71, !llvm.loop !11

._crit_edge72:                                    ; preds = %39, %1
  ret void
}